; Function Attrs: mustprogress uwtable
define hidden void @_ZN6google8protobuf2io15FileInputStreamC2Eii(ptr noundef nonnull align 8 dereferenceable(88) initializes((0, 22), (24, 29)) %0, i32 noundef %1, i32 noundef %2) unnamed_addr #3 align 2 personality ptr @__gxx_personality_v0 {
.noexc:
  store ptr getelementptr inbounds nuw inrange(-16, 48) (i8, ptr @_ZTVN6google8protobuf2io15FileInputStreamE, i64 16), ptr %0, align 8, !tbaa !3
  %3 = getelementptr inbounds nuw i8, ptr %0, i64 8
  store ptr getelementptr inbounds nuw inrange(-16, 32) (i8, ptr @_ZTVN6google8protobuf2io15FileInputStream22CopyingFileInputStreamE, i64 16), ptr %3, align 8, !tbaa !3
  %4 = getelementptr inbounds nuw i8, ptr %0, i64 16
  store i32 %1, ptr %4, align 8, !tbaa !6
  %5 = getelementptr inbounds nuw i8, ptr %0, i64 20
  store i8 0, ptr %5, align 4, !tbaa !12
  %6 = getelementptr inbounds nuw i8, ptr %0, i64 21
  store i8 0, ptr %6, align 1, !tbaa !13
  %7 = getelementptr inbounds nuw i8, ptr %0, i64 24
  store i32 0, ptr %7, align 8, !tbaa !14
  %8 = getelementptr inbounds nuw i8, ptr %0, i64 28
  store i8 0, ptr %8, align 4, !tbaa !15
  %9 = tail call i32 (i32, i32, ...) @fcntl(i32 noundef %1, i32 noundef 3)
  %10 = and i32 %9, -2049
  %11 = load i32, ptr %4, align 8, !tbaa !6
  %12 = tail call i32 (i32, i32, ...) @fcntl(i32 noundef %11, i32 noundef 4, i32 noundef %10)
  %13 = getelementptr inbounds nuw i8, ptr %0, i64 32
  invoke void @_ZN6google8protobuf2io25CopyingInputStreamAdaptorC1EPNS1_18CopyingInputStreamEi(ptr noundef nonnull align 8 dereferenceable(52) %13, ptr noundef nonnull %3, i32 noundef %2)
          to label %14 unwind label %15

14:                                               ; preds = %.noexc
  ret void

15:                                               ; preds = %.noexc
  %16 = landingpad { ptr, i32 }
          cleanup
  tail call void @_ZN6google8protobuf2io15FileInputStream22CopyingFileInputStreamD2Ev(ptr noundef nonnull align 8 dereferenceable(21) %3) #15
  resume { ptr, i32 } %16
}